target datalayout = "e-m:e-p270:32:32-p271:32:32-p272:64:64-i64:64-i128:128-f80:128-n8:16:32:64-S128"
target triple = "x86_64-pc-linux-gnu"

%struct._php_random_algo = type { i64, ptr, ptr, ptr, ptr }
%struct._zend_executor_globals = type { %struct._zval_struct, %struct._zval_struct, [32 x ptr], ptr, ptr, %struct._zend_array, %struct._zend_array, ptr, i32, i8, %struct._zval_struct, i32, ptr, ptr, ptr, ptr, ptr, ptr, i64, ptr, ptr, i32, ptr, i32, i64, i32, i32, i32, i8, i8, %struct.zend_atomic_bool_s, %struct.zend_atomic_bool_s, ptr, i64, ptr, ptr, %struct._zend_array, %struct._zend_array, i32, i8, %struct._zval_struct, %struct._zval_struct, %struct._zend_stack, %struct._zend_stack, %struct._zend_stack, ptr, i32, i32, i64, ptr, ptr, ptr, %struct._zend_objects_store, %struct._zend_lazy_objects_store, ptr, ptr, ptr, [3 x %struct._zend_op], ptr, i8, i8, i64, i32, i32, ptr, [16 x %struct._HashTableIterator], ptr, %union._zend_function, %struct._zend_op, %struct._zend_array, i64, %struct.zend_get_gc_buffer, ptr, ptr, ptr, i64, i8, i32, ptr, ptr, i64, %struct._zend_call_stack, i64, i64, %struct._zend_strtod_state, [6 x ptr] }
%struct.zend_atomic_bool_s = type { i8 }
%struct._zval_struct = type { %union._zend_value, %union.anon, %union.anon.2 }
%union._zend_value = type { i64 }
%union.anon = type { i32 }
%union.anon.2 = type { i32 }
%struct._zend_stack = type { i32, i32, i32, ptr }
%struct._zend_objects_store = type { ptr, i32, i32, i32 }
%struct._zend_lazy_objects_store = type { %struct._zend_array }
%struct._HashTableIterator = type { ptr, i32, i32 }
%union._zend_function = type { %struct._zend_op_array }
%struct._zend_op_array = type { i8, [3 x i8], i32, ptr, ptr, ptr, i32, i32, ptr, ptr, ptr, ptr, i32, ptr, i32, i32, i32, ptr, ptr, ptr, ptr, ptr, i32, i32, ptr, ptr, ptr, i32, i32, i32, i32, ptr, ptr, [6 x ptr] }
%struct._zend_op = type { ptr, %union._znode_op, %union._znode_op, %union._znode_op, i32, i32, i8, i8, i8, i8 }
%union._znode_op = type { i32 }
%struct._zend_array = type { %struct._zend_refcounted_h, %union.anon.4, i32, %union.anon.6, i32, i32, i32, i32, i64, ptr }
%struct._zend_refcounted_h = type { i32, %union.anon.3 }
%union.anon.3 = type { i32 }
%union.anon.4 = type { i32 }
%union.anon.6 = type { ptr }
%struct.zend_get_gc_buffer = type { ptr, ptr, ptr }
%struct._zend_call_stack = type { ptr, i64 }
%struct._zend_strtod_state = type { [8 x ptr], ptr, ptr }
%struct._php_random_algo_with_state = type { ptr, ptr }
%struct._zend_execute_data = type { ptr, ptr, ptr, ptr, %struct._zval_struct, ptr, ptr, ptr, ptr }
%struct._php_random_engine = type { %struct._php_random_algo_with_state, %struct._zend_object }
%struct._zend_object = type { %struct._zend_refcounted_h, i32, i32, ptr, ptr, ptr, [1 x %struct._zval_struct] }

@executor_globals = external global %struct._zend_executor_globals, align 8
@.str.3 = private unnamed_addr constant [24 x i8] c"Engine serialize failed\00", align 1
@.str.5 = private unnamed_addr constant [9 x i8] c"__states\00", align 1

; Function Attrs: alwaysinline nounwind uwtable
define internal zeroext i1 @zend_object_is_lazy(ptr noundef %0) #7 {
  %2 = alloca ptr, align 8
  store ptr %0, ptr %2, align 8, !tbaa !73
  %3 = load ptr, ptr %2, align 8, !tbaa !73
  %4 = getelementptr inbounds nuw %struct._zend_object, ptr %3, i32 0, i32 2
  %5 = load i32, ptr %4, align 4, !tbaa !111
  %6 = and i32 %5, -1073741824
  %7 = icmp ne i32 %6, 0
  ret i1 %7
}

; Function Attrs: alwaysinline nounwind uwtable
define internal zeroext i1 @zend_lazy_object_must_init(ptr noundef %0) #7 {
  %2 = alloca ptr, align 8
  store ptr %0, ptr %2, align 8, !tbaa !73
  %3 = load ptr, ptr %2, align 8, !tbaa !73
  %4 = call zeroext i1 @zend_object_is_lazy(ptr noundef %3)
  ret i1 %4
}

; Function Attrs: alwaysinline nounwind uwtable
define internal ptr @zend_std_get_properties_ex(ptr noundef %0) #7 {
  %2 = alloca ptr, align 8
  %3 = alloca ptr, align 8
  store ptr %0, ptr %3, align 8, !tbaa !73
  %4 = load ptr, ptr %3, align 8, !tbaa !73
  %5 = call zeroext i1 @zend_lazy_object_must_init(ptr noundef %4)
  %6 = xor i1 %5, true
  %7 = xor i1 %6, true
  %8 = zext i1 %7 to i32
  %9 = sext i32 %8 to i64
  %10 = call i64 @llvm.expect.i64(i64 %9, i64 0)
  %11 = icmp ne i64 %10, 0
  br i1 %11, label %12, label %15

12:                                               ; preds = %1
  %13 = load ptr, ptr %3, align 8, !tbaa !73
  %14 = call ptr @zend_lazy_object_get_properties(ptr noundef %13)
  store ptr %14, ptr %2, align 8
  br label %27

15:                                               ; preds = %1
  %16 = load ptr, ptr %3, align 8, !tbaa !73
  %17 = getelementptr inbounds nuw %struct._zend_object, ptr %16, i32 0, i32 5
  %18 = load ptr, ptr %17, align 8, !tbaa !103
  %19 = icmp ne ptr %18, null
  br i1 %19, label %23, label %20

20:                                               ; preds = %15
  %21 = load ptr, ptr %3, align 8, !tbaa !73
  %22 = call ptr @rebuild_object_properties_internal(ptr noundef %21)
  store ptr %22, ptr %2, align 8
  br label %27

23:                                               ; preds = %15
  %24 = load ptr, ptr %3, align 8, !tbaa !73
  %25 = getelementptr inbounds nuw %struct._zend_object, ptr %24, i32 0, i32 5
  %26 = load ptr, ptr %25, align 8, !tbaa !103
  store ptr %26, ptr %2, align 8
  br label %27

27:                                               ; preds = %23, %20, %12
  %28 = load ptr, ptr %2, align 8
  ret ptr %28
}

; Function Attrs: inlinehint nounwind uwtable
define internal ptr @php_random_engine_from_obj(ptr noundef %0) #0 {
  %2 = alloca ptr, align 8
  store ptr %0, ptr %2, align 8, !tbaa !73
  %3 = load ptr, ptr %2, align 8, !tbaa !73
  %4 = getelementptr inbounds i8, ptr %3, i64 -16
  ret ptr %4
}

; Function Attrs: nounwind uwtable
define hidden void @zim_Random_Engine_Mt19937___debugInfo(ptr noundef %0, ptr noundef %1) #2 {
  %3 = alloca ptr, align 8
  %4 = alloca ptr, align 8
  %5 = alloca ptr, align 8
  %6 = alloca %struct._zval_struct, align 8
  %7 = alloca i32, align 4
  %8 = alloca ptr, align 8
  %9 = alloca ptr, align 8
  %10 = alloca ptr, align 8
  %11 = alloca ptr, align 8
  store ptr %0, ptr %3, align 8, !tbaa !36
  store ptr %1, ptr %4, align 8, !tbaa !28
  call void @llvm.lifetime.start.p0(i64 8, ptr %5) #10
  %12 = load ptr, ptr %3, align 8, !tbaa !36
  %13 = getelementptr inbounds nuw %struct._zend_execute_data, ptr %12, i32 0, i32 4
  %14 = getelementptr inbounds nuw %struct._zval_struct, ptr %13, i32 0, i32 0
  %15 = load ptr, ptr %14, align 8, !tbaa !32
  %16 = call ptr @php_random_engine_from_obj(ptr noundef %15)
  store ptr %16, ptr %5, align 8, !tbaa !81
  call void @llvm.lifetime.start.p0(i64 16, ptr %6) #10
  br label %17

17:                                               ; preds = %2
  %18 = load ptr, ptr %3, align 8, !tbaa !36
  %19 = getelementptr inbounds nuw %struct._zend_execute_data, ptr %18, i32 0, i32 4
  %20 = getelementptr inbounds nuw %struct._zval_struct, ptr %19, i32 0, i32 2
  %21 = load i32, ptr %20, align 4, !tbaa !32
  %22 = icmp ne i32 %21, 0
  %23 = xor i1 %22, true
  %24 = xor i1 %23, true
  %25 = zext i1 %24 to i32
  %26 = sext i32 %25 to i64
  %27 = call i64 @llvm.expect.i64(i64 %26, i64 0)
  %28 = icmp ne i64 %27, 0
  br i1 %28, label %29, label %30

29:                                               ; preds = %17
  call void @zend_wrong_parameters_none_error()
  store i32 1, ptr %7, align 4
  br label %89

30:                                               ; preds = %17
  br label %31

31:                                               ; preds = %30
  br label %32

32:                                               ; preds = %31
  br label %33

33:                                               ; preds = %32
  call void @llvm.lifetime.start.p0(i64 8, ptr %8) #10
  %34 = load ptr, ptr %5, align 8, !tbaa !81
  %35 = getelementptr inbounds nuw %struct._php_random_engine, ptr %34, i32 0, i32 1
  %36 = call ptr @zend_std_get_properties_ex(ptr noundef %35)
  %37 = call ptr @zend_array_dup(ptr noundef %36)
  store ptr %37, ptr %8, align 8, !tbaa !26
  call void @llvm.lifetime.start.p0(i64 8, ptr %9) #10
  %38 = load ptr, ptr %4, align 8, !tbaa !28
  store ptr %38, ptr %9, align 8, !tbaa !28
  %39 = load ptr, ptr %8, align 8, !tbaa !26
  %40 = load ptr, ptr %9, align 8, !tbaa !28
  %41 = getelementptr inbounds nuw %struct._zval_struct, ptr %40, i32 0, i32 0
  store ptr %39, ptr %41, align 8, !tbaa !32
  %42 = load ptr, ptr %9, align 8, !tbaa !28
  %43 = getelementptr inbounds nuw %struct._zval_struct, ptr %42, i32 0, i32 1
  store i32 775, ptr %43, align 8, !tbaa !32
  call void @llvm.lifetime.end.p0(i64 8, ptr %9) #10
  call void @llvm.lifetime.end.p0(i64 8, ptr %8) #10
  br label %44

44:                                               ; preds = %33
  br label %45

45:                                               ; preds = %44
  %46 = load ptr, ptr %5, align 8, !tbaa !81
  %47 = getelementptr inbounds nuw %struct._php_random_engine, ptr %46, i32 0, i32 0
  %48 = getelementptr inbounds nuw %struct._php_random_algo_with_state, ptr %47, i32 0, i32 0
  %49 = load ptr, ptr %48, align 8, !tbaa !83
  %50 = getelementptr inbounds nuw %struct._php_random_algo, ptr %49, i32 0, i32 3
  %51 = load ptr, ptr %50, align 8, !tbaa !87
  %52 = icmp ne ptr %51, null
  br i1 %52, label %53, label %88

53:                                               ; preds = %45
  br label %54

54:                                               ; preds = %53
  call void @llvm.lifetime.start.p0(i64 8, ptr %10) #10
  %55 = call ptr @_zend_new_array_0()
  store ptr %55, ptr %10, align 8, !tbaa !26
  call void @llvm.lifetime.start.p0(i64 8, ptr %11) #10
  store ptr %6, ptr %11, align 8, !tbaa !28
  %56 = load ptr, ptr %10, align 8, !tbaa !26
  %57 = load ptr, ptr %11, align 8, !tbaa !28
  %58 = getelementptr inbounds nuw %struct._zval_struct, ptr %57, i32 0, i32 0
  store ptr %56, ptr %58, align 8, !tbaa !32
  %59 = load ptr, ptr %11, align 8, !tbaa !28
  %60 = getelementptr inbounds nuw %struct._zval_struct, ptr %59, i32 0, i32 1
  store i32 775, ptr %60, align 8, !tbaa !32
  call void @llvm.lifetime.end.p0(i64 8, ptr %11) #10
  call void @llvm.lifetime.end.p0(i64 8, ptr %10) #10
  br label %61

61:                                               ; preds = %54
  br label %62

62:                                               ; preds = %61
  %63 = load ptr, ptr %5, align 8, !tbaa !81
  %64 = getelementptr inbounds nuw %struct._php_random_engine, ptr %63, i32 0, i32 0
  %65 = getelementptr inbounds nuw %struct._php_random_algo_with_state, ptr %64, i32 0, i32 0
  %66 = load ptr, ptr %65, align 8, !tbaa !83
  %67 = getelementptr inbounds nuw %struct._php_random_algo, ptr %66, i32 0, i32 3
  %68 = load ptr, ptr %67, align 8, !tbaa !87
  %69 = load ptr, ptr %5, align 8, !tbaa !81
  %70 = getelementptr inbounds nuw %struct._php_random_engine, ptr %69, i32 0, i32 0
  %71 = getelementptr inbounds nuw %struct._php_random_algo_with_state, ptr %70, i32 0, i32 1
  %72 = load ptr, ptr %71, align 8, !tbaa !88
  %73 = getelementptr inbounds nuw %struct._zval_struct, ptr %6, i32 0, i32 0
  %74 = load ptr, ptr %73, align 8, !tbaa !32
  %75 = call zeroext i1 %68(ptr noundef %72, ptr noundef %74)
  br i1 %75, label %83, label %76

76:                                               ; preds = %62
  %77 = call ptr @zend_throw_exception(ptr noundef null, ptr noundef @.str.3, i64 noundef 0)
  br label %78

78:                                               ; preds = %76
  %79 = load ptr, ptr getelementptr inbounds nuw (%struct._zend_executor_globals, ptr @executor_globals, i32 0, i32 54), align 8, !tbaa !46
  %80 = icmp ne ptr %79, null
  call void @llvm.assume(i1 %80)
  store i32 1, ptr %7, align 4
  br label %89

81:                                               ; No predecessors!
  br label %82

82:                                               ; preds = %81
  br label %83

83:                                               ; preds = %82, %62
  %84 = load ptr, ptr %4, align 8, !tbaa !28
  %85 = getelementptr inbounds nuw %struct._zval_struct, ptr %84, i32 0, i32 0
  %86 = load ptr, ptr %85, align 8, !tbaa !32
  %87 = call ptr @zend_hash_str_add(ptr noundef %86, ptr noundef @.str.5, i64 noundef 8, ptr noundef %6)
  br label %88

88:                                               ; preds = %83, %45
  store i32 0, ptr %7, align 4
  br label %89

89:                                               ; preds = %88, %78, %29
  call void @llvm.lifetime.end.p0(i64 16, ptr %6) #10
  call void @llvm.lifetime.end.p0(i64 8, ptr %5) #10
  %90 = load i32, ptr %7, align 4
  switch i32 %90, label %92 [
    i32 0, label %91
    i32 1, label %91
  ]

91:                                               ; preds = %89, %89
  ret void

92:                                               ; preds = %89
  unreachable
}