; Function Attrs: nounwind uwtable
define hidden void @zim_Random_Engine_Mt19937___debugInfo(ptr noundef readonly captures(none) %0, ptr noundef captures(none) %1) local_unnamed_addr #3 {
  %3 = alloca %struct._zval_struct, align 8
  %4 = getelementptr inbounds nuw i8, ptr %0, i64 32
  %5 = load ptr, ptr %4, align 8, !tbaa !11
  %6 = getelementptr inbounds i8, ptr %5, i64 -16
  call void @llvm.lifetime.start.p0(i64 16, ptr nonnull %3) #7
  %7 = getelementptr inbounds nuw i8, ptr %0, i64 44
  %8 = load i32, ptr %7, align 4, !tbaa !11
  %.not = icmp eq i32 %8, 0
  br i1 %.not, label %10, label %9, !prof !24

9:                                                ; preds = %2
  tail call void @zend_wrong_parameters_none_error() #7
  br label %42

10:                                               ; preds = %2
  %11 = getelementptr inbounds nuw i8, ptr %5, i64 12
  %12 = load i32, ptr %11, align 4, !tbaa !85
  %13 = icmp ugt i32 %12, 1073741823
  br i1 %13, label %14, label %16, !prof !21

14:                                               ; preds = %10
  %15 = tail call ptr @zend_lazy_object_get_properties(ptr noundef nonnull %5) #7
  br label %zend_std_get_properties_ex.exit

16:                                               ; preds = %10
  %17 = getelementptr inbounds nuw i8, ptr %5, i64 32
  %18 = load ptr, ptr %17, align 8, !tbaa !86
  %.not.i = icmp eq ptr %18, null
  br i1 %.not.i, label %19, label %zend_std_get_properties_ex.exit

19:                                               ; preds = %16
  %20 = tail call ptr @rebuild_object_properties_internal(ptr noundef nonnull %5) #7
  br label %zend_std_get_properties_ex.exit

zend_std_get_properties_ex.exit:                  ; preds = %14, %16, %19
  %.0.i = phi ptr [ %15, %14 ], [ %20, %19 ], [ %18, %16 ]
  %21 = tail call ptr @zend_array_dup(ptr noundef %.0.i) #7
  store ptr %21, ptr %1, align 8, !tbaa !11
  %22 = getelementptr inbounds nuw i8, ptr %1, i64 8
  store i32 775, ptr %22, align 8, !tbaa !11
  %23 = load ptr, ptr %6, align 8, !tbaa !64
  %24 = getelementptr inbounds nuw i8, ptr %23, i64 24
  %25 = load ptr, ptr %24, align 8, !tbaa !69
  %.not14 = icmp eq ptr %25, null
  br i1 %.not14, label %42, label %26

26:                                               ; preds = %zend_std_get_properties_ex.exit
  %27 = tail call ptr @_zend_new_array_0() #7
  store ptr %27, ptr %3, align 8, !tbaa !11
  %28 = getelementptr inbounds nuw i8, ptr %3, i64 8
  store i32 775, ptr %28, align 8, !tbaa !11
  %29 = load ptr, ptr %6, align 8, !tbaa !64
  %30 = getelementptr inbounds nuw i8, ptr %29, i64 24
  %31 = load ptr, ptr %30, align 8, !tbaa !69
  %32 = getelementptr inbounds i8, ptr %5, i64 -8
  %33 = load ptr, ptr %32, align 8, !tbaa !70
  %34 = tail call zeroext i1 %31(ptr noundef %33, ptr noundef %27) #7
  br i1 %34, label %39, label %35

35:                                               ; preds = %26
  %36 = tail call ptr @zend_throw_exception(ptr noundef null, ptr noundef nonnull @.str.3, i64 noundef 0) #7
  %37 = load ptr, ptr getelementptr inbounds nuw (i8, ptr @executor_globals, i64 960), align 8, !tbaa !26
  %38 = icmp ne ptr %37, null
  tail call void @llvm.assume(i1 %38)
  br label %42

39:                                               ; preds = %26
  %40 = load ptr, ptr %1, align 8, !tbaa !11
  %41 = call ptr @zend_hash_str_add(ptr noundef %40, ptr noundef nonnull @.str.5, i64 noundef 8, ptr noundef nonnull %3) #7
  br label %42

42:                                               ; preds = %zend_std_get_properties_ex.exit, %39, %35, %9
  call void @llvm.lifetime.end.p0(i64 16, ptr nonnull %3) #7
  ret void
}